target datalayout = "e-m:e-p270:32:32-p271:32:32-p272:64:64-i64:64-i128:128-f80:128-n8:16:32:64-S128"
target triple = "x86_64-pc-linux-gnu"

%struct.nghttp2_settings_entry = type { i32, i32 }
%struct.http2_session_data = type { ptr, ptr, ptr, ptr }

@__const.send_client_connection_header.iv = private unnamed_addr constant [1 x %struct.nghttp2_settings_entry] [%struct.nghttp2_settings_entry { i32 3, i32 100 }], align 4
@.str.20 = private unnamed_addr constant [30 x i8] c"Could not submit SETTINGS: %s\00", align 1

; Function Attrs: nounwind uwtable
define internal void @send_client_connection_header(ptr noundef %0) #0 {
  %2 = alloca ptr, align 8
  %3 = alloca [1 x %struct.nghttp2_settings_entry], align 4
  %4 = alloca i32, align 4
  store ptr %0, ptr %2, align 8, !tbaa !29
  call void @llvm.lifetime.start.p0(i64 8, ptr %3) #10
  call void @llvm.memcpy.p0.p0.i64(ptr align 4 %3, ptr align 4 @__const.send_client_connection_header.iv, i64 8, i1 false)
  call void @llvm.lifetime.start.p0(i64 4, ptr %4) #10
  %5 = load ptr, ptr %2, align 8, !tbaa !29
  %6 = getelementptr inbounds nuw %struct.http2_session_data, ptr %5, i32 0, i32 0
  %7 = load ptr, ptr %6, align 8, !tbaa !54
  %8 = getelementptr inbounds [1 x %struct.nghttp2_settings_entry], ptr %3, i64 0, i64 0
  %9 = call i32 @nghttp2_submit_settings(ptr noundef %7, i8 noundef zeroext 0, ptr noundef %8, i64 noundef 1)
  store i32 %9, ptr %4, align 4, !tbaa !4
  %10 = load i32, ptr %4, align 4, !tbaa !4
  %11 = icmp ne i32 %10, 0
  br i1 %11, label %12, label %15

12:                                               ; preds = %1
  %13 = load i32, ptr %4, align 4, !tbaa !4
  %14 = call ptr @nghttp2_strerror(i32 noundef %13)
  call void (i32, ptr, ...) @errx(i32 noundef 1, ptr noundef @.str.20, ptr noundef %14) #13
  unreachable

15:                                               ; preds = %1
  call void @llvm.lifetime.end.p0(i64 4, ptr %4) #10
  call void @llvm.lifetime.end.p0(i64 8, ptr %3) #10
  ret void
}