; Function Attrs: nounwind uwtable
define internal fastcc void @send_client_connection_header(ptr %.0.val) unnamed_addr #0 {
  %1 = alloca [1 x %struct.nghttp2_settings_entry], align 8
  call void @llvm.lifetime.start.p0(i64 8, ptr nonnull %1) #18
  store i64 429496729603, ptr %1, align 8
  %2 = call i32 @nghttp2_submit_settings(ptr noundef %.0.val, i8 noundef zeroext 0, ptr noundef nonnull %1, i64 noundef 1) #18
  %.not = icmp eq i32 %2, 0
  br i1 %.not, label %5, label %3

3:                                                ; preds = %0
  %4 = call ptr @nghttp2_strerror(i32 noundef %2) #18
  call void (i32, ptr, ...) @errx(i32 noundef 1, ptr noundef nonnull @.str.20, ptr noundef %4) #22
  unreachable

5:                                                ; preds = %0
  call void @llvm.lifetime.end.p0(i64 8, ptr nonnull %1) #18
  ret void
}